(imatplotlib.font_manager
FontManager
p1
(dp2
S'afm_lookup_cache'
p3
(dp4
sS'ttflist'
p5
(lp6
ccopy_reg
_reconstructor
p7
(cmatplotlib.font_manager
FontEntry
p8
c__builtin__
object
p9
NtRp10
(dp11
S'style'
p12
S'normal'
p13
sS'name'
p14
S'KacstTitle'
p15
sS'weight'
p16
I400
sS'stretch'
p17
g13
sS'variant'
p18
g13
sS'fname'
p19
S'/usr/share/fonts/truetype/kacst/KacstTitle.ttf'
p20
sS'size'
p21
S'scalable'
p22
sbag7
(g8
g9
NtRp23
(dp24
g12
g13
sg14
S'cmr10'
p25
sg16
I400
sg17
g13
sg18
g13
sg19
S'/usr/share/fonts/truetype/lyx/cmr10.ttf'
p26
sg21
g22
sbag7
(g8
g9
NtRp27
(dp28
g12
g13
sg14
S'Mallige'
p29
sg16
I700
sg17
g13
sg18
g13
sg19
S'/usr/share/fonts/truetype/ttf-indic-fonts-core/Malige-b.ttf'
p30
sg21
g22
sbag7
(g8
g9
NtRp31
(dp32
g12
g13
sg14
S'Ubuntu'
p33
sg16
I500
sg17
g13
sg18
g13
sg19
S'/usr/share/fonts/truetype/ubuntu-font-family/Ubuntu-M.ttf'
p34
sg21
g22
sbag7
(g8
g9
NtRp35
(dp36
g12
g13
sg14
S'Umpush'
p37
sg16
I400
sg17
g13
sg18
g13
sg19
S'/usr/share/fonts/truetype/tlwg/Umpush.ttf'
p38
sg21
g22
sbag7
(g8
g9
NtRp39
(dp40
g12
g13
sg14
S'Garuda'
p41
sg16
I700
sg17
g13
sg18
g13
sg19
S'/usr/share/fonts/truetype/tlwg/Garuda-Bold.ttf'
p42
sg21
g22
sbag7
(g8
g9
NtRp43
(dp44
g12
S'italic'
p45
sg14
S'DejaVu Serif'
p46
sg16
I700
sg17
S'condensed'
p47
sg18
g13
sg19
S'/usr/share/fonts/truetype/dejavu/DejaVuSerifCondensed-BoldItalic.ttf'
p48
sg21
g22
sbag7
(g8
g9
NtRp49
(dp50
g12
S'oblique'
p51
sg14
S'Tlwg Typist'
p52
sg16
I700
sg17
g13
sg18
g13
sg19
S'/usr/share/fonts/truetype/tlwg/TlwgTypist-BoldOblique.ttf'
p53
sg21
g22
sbag7
(g8
g9
NtRp54
(dp55
g12
g13
sg14
S'KacstScreen'
p56
sg16
I400
sg17
g13
sg18
g13
sg19
S'/usr/share/fonts/truetype/kacst/KacstScreen.ttf'
p57
sg21
g22
sbag7
(g8
g9
NtRp58
(dp59
g12
g51
sg14
S'Loma'
p60
sg16
I400
sg17
g13
sg18
g13
sg19
S'/usr/share/fonts/truetype/tlwg/Loma-Oblique.ttf'
p61
sg21
g22
sbag7
(g8
g9
NtRp62
(dp63
g12
g51
sg14
S'Norasi'
p64
sg16
I400
sg17
g13
sg18
g13
sg19
S'/usr/share/fonts/truetype/tlwg/Norasi-Oblique.ttf'
p65
sg21
g22
sbag7
(g8
g9
NtRp66
(dp67
g12
g13
sg14
S'DejaVu Sans Mono'
p68
sg16
I400
sg17
g13
sg18
g13
sg19
S'/usr/share/fonts/truetype/ttf-dejavu/DejaVuSansMono.ttf'
p69
sg21
g22
sbag7
(g8
g9
NtRp70
(dp71
g12
g45
sg14
S'Ubuntu'
p72
sg16
I700
sg17
g13
sg18
g13
sg19
S'/usr/share/fonts/truetype/ubuntu-font-family/Ubuntu-BI.ttf'
p73
sg21
g22
sbag7
(g8
g9
NtRp74
(dp75
g12
g13
sg14
S'Meera'
p76
sg16
I400
sg17
g13
sg18
g13
sg19
S'/usr/share/fonts/truetype/ttf-indic-fonts-core/Meera_04.ttf'
p77
sg21
g22
sbag7
(g8
g9
NtRp78
(dp79
g12
g13
sg14
S'TakaoPGothic'
p80
sg16
I400
sg17
g13
sg18
g13
sg19
S'/usr/share/fonts/truetype/fonts-japanese-gothic.ttf'
p81
sg21
g22
sbag7
(g8
g9
NtRp82
(dp83
g12
g13
sg14
S'Liberation Mono'
p84
sg16
I700
sg17
g13
sg18
g13
sg19
S'/usr/share/fonts/truetype/liberation/LiberationMono-Bold.ttf'
p85
sg21
g22
sbag7
(g8
g9
NtRp86
(dp87
g12
g13
sg14
S'DejaVu Serif'
p88
sg16
I400
sg17
g13
sg18
g13
sg19
S'/usr/share/fonts/truetype/dejavu/DejaVuSerif.ttf'
p89
sg21
g22
sbag7
(g8
g9
NtRp90
(dp91
g12
g51
sg14
S'Umpush'
p92
sg16
I200
sg17
g13
sg18
g13
sg19
S'/usr/share/fonts/truetype/tlwg/Umpush-LightOblique.ttf'
p93
sg21
g22
sbag7
(g8
g9
NtRp94
(dp95
g12
g13
sg14
S'FreeSerif'
p96
sg16
I700
sg17
g13
sg18
g13
sg19
S'/usr/share/fonts/truetype/freefont/FreeSerifBold.ttf'
p97
sg21
g22
sbag7
(g8
g9
NtRp98
(dp99
g12
g51
sg14
S'Waree'
p100
sg16
I400
sg17
g13
sg18
g13
sg19
S'/usr/share/fonts/truetype/tlwg/Waree-Oblique.ttf'
p101
sg21
g22
sbag7
(g8
g9
NtRp102
(dp103
g12
g13
sg14
S'Tlwg Typo'
p104
sg16
I400
sg17
g13
sg18
g13
sg19
S'/usr/share/fonts/truetype/tlwg/TlwgTypo.ttf'
p105
sg21
g22
sbag7
(g8
g9
NtRp106
(dp107
g12
g45
sg14
S'DejaVu Serif'
p108
sg16
I700
sg17
g13
sg18
g13
sg19
S'/usr/share/fonts/truetype/dejavu/DejaVuSerif-BoldItalic.ttf'
p109
sg21
g22
sbag7
(g8
g9
NtRp110
(dp111
g12
g45
sg14
S'Liberation Serif'
p112
sg16
I400
sg17
g13
sg18
g13
sg19
S'/usr/share/fonts/truetype/liberation/LiberationSerif-Italic.ttf'
p113
sg21
g22
sbag7
(g8
g9
NtRp114
(dp115
g12
g13
sg14
S'LKLUG'
p116
sg16
I400
sg17
g13
sg18
g13
sg19
S'/usr/share/fonts/truetype/sinhala/lklug.ttf'
p117
sg21
g22
sbag7
(g8
g9
NtRp118
(dp119
g12
g13
sg14
S'Rachana'
p120
sg16
I400
sg17
g13
sg18
g13
sg19
S'/usr/share/fonts/truetype/ttf-indic-fonts-core/Rachana_04.ttf'
p121
sg21
g22
sbag7
(g8
g9
NtRp122
(dp123
g12
g13
sg14
S'Liberation Sans Narrow'
p124
sg16
I700
sg17
g47
sg18
g13
sg19
S'/usr/share/fonts/truetype/liberation/LiberationSansNarrow-Bold.ttf'
p125
sg21
g22
sbag7
(g8
g9
NtRp126
(dp127
g12
g51
sg14
S'FreeSans'
p128
sg16
I400
sg17
g13
sg18
g13
sg19
S'/usr/share/fonts/truetype/freefont/FreeSansOblique.ttf'
p129
sg21
g22
sbag7
(g8
g9
NtRp130
(dp131
g12
g13
sg14
S'Liberation Sans'
p132
sg16
I700
sg17
g13
sg18
g13
sg19
S'/usr/share/fonts/truetype/liberation/LiberationSans-Bold.ttf'
p133
sg21
g22
sbag7
(g8
g9
NtRp134
(dp135
g12
g13
sg14
S'DejaVu Sans Mono'
p136
sg16
I700
sg17
g13
sg18
g13
sg19
S'/usr/share/fonts/truetype/dejavu/DejaVuSansMono-Bold.ttf'
p137
sg21
g22
sbag7
(g8
g9
NtRp138
(dp139
g12
g13
sg14
S'DejaVu Serif'
p140
sg16
I700
sg17
g47
sg18
g13
sg19
S'/usr/share/fonts/truetype/dejavu/DejaVuSerifCondensed-Bold.ttf'
p141
sg21
g22
sbag7
(g8
g9
NtRp142
(dp143
g12
g13
sg14
S'Liberation Mono'
p144
sg16
I400
sg17
g13
sg18
g13
sg19
S'/usr/share/fonts/truetype/liberation/LiberationMono-Regular.ttf'
p145
sg21
g22
sbag7
(g8
g9
NtRp146
(dp147
g12
g13
sg14
S'Ubuntu'
p148
sg16
I400
sg17
g13
sg18
g13
sg19
S'/usr/share/fonts/truetype/ubuntu-font-family/Ubuntu-R.ttf'
p149
sg21
g22
sbag7
(g8
g9
NtRp150
(dp151
g12
g45
sg14
S'rsfs10'
p152
sg16
I400
sg17
g13
sg18
g13
sg19
S'/usr/share/fonts/truetype/lyx/rsfs10.ttf'
p153
sg21
g22
sbag7
(g8
g9
NtRp154
(dp155
g12
g51
sg14
S'DejaVu Sans'
p156
sg16
I400
sg17
g47
sg18
g13
sg19
S'/usr/share/fonts/truetype/dejavu/DejaVuSansCondensed-Oblique.ttf'
p157
sg21
g22
sbag7
(g8
g9
NtRp158
(dp159
g12
g13
sg14
S'Garuda'
p160
sg16
I400
sg17
g13
sg18
g13
sg19
S'/usr/share/fonts/truetype/tlwg/Garuda.ttf'
p161
sg21
g22
sbag7
(g8
g9
NtRp162
(dp163
g12
g51
sg14
S'TlwgMono'
p164
sg16
I400
sg17
g13
sg18
g13
sg19
S'/usr/share/fonts/truetype/tlwg/TlwgMono-Oblique.ttf'
p165
sg21
g22
sbag7
(g8
g9
NtRp166
(dp167
g12
g51
sg14
S'DejaVu Sans'
p168
sg16
I400
sg17
g13
sg18
g13
sg19
S'/usr/share/fonts/truetype/dejavu/DejaVuSans-Oblique.ttf'
p169
sg21
g22
sbag7
(g8
g9
NtRp170
(dp171
g12
g13
sg14
S'Tlwg Typist'
p172
sg16
I400
sg17
g13
sg18
g13
sg19
S'/usr/share/fonts/truetype/tlwg/TlwgTypist.ttf'
p173
sg21
g22
sbag7
(g8
g9
NtRp174
(dp175
g12
g13
sg14
S'NanumGothic'
p176
sg16
I400
sg17
g13
sg18
g13
sg19
S'/usr/share/fonts/truetype/nanum/NanumGothic.ttf'
p177
sg21
g22
sbag7
(g8
g9
NtRp178
(dp179
g12
g51
sg14
S'DejaVu Sans'
p180
sg16
I700
sg17
g13
sg18
g13
sg19
S'/usr/share/fonts/truetype/dejavu/DejaVuSans-BoldOblique.ttf'
p181
sg21
g22
sbag7
(g8
g9
NtRp182
(dp183
g12
g13
sg14
S'mry_KacstQurn'
p184
sg16
I400
sg17
g13
sg18
g13
sg19
S'/usr/share/fonts/truetype/kacst/mry_KacstQurn.ttf'
p185
sg21
g22
sbag7
(g8
g9
NtRp186
(dp187
g12
g13
sg14
S'TlwgMono'
p188
sg16
I700
sg17
g13
sg18
g13
sg19
S'/usr/share/fonts/truetype/tlwg/TlwgMono-Bold.ttf'
p189
sg21
g22
sbag7
(g8
g9
NtRp190
(dp191
g12
g45
sg14
S'Liberation Mono'
p192
sg16
I400
sg17
g13
sg18
g13
sg19
S'/usr/share/fonts/truetype/liberation/LiberationMono-Italic.ttf'
p193
sg21
g22
sbag7
(g8
g9
NtRp194
(dp195
g12
g13
sg14
S'Tibetan Machine Uni'
p196
sg16
I400
sg17
g13
sg18
g13
sg19
S'/usr/share/fonts/truetype/tibetan-machine/TibetanMachineUni.ttf'
p197
sg21
g22
sbag7
(g8
g9
NtRp198
(dp199
g12
g13
sg14
S'msbm10'
p200
sg16
I400
sg17
g13
sg18
g13
sg19
S'/usr/share/fonts/truetype/lyx/msbm10.ttf'
p201
sg21
g22
sbag7
(g8
g9
NtRp202
(dp203
g12
g45
sg14
S'Liberation Serif'
p204
sg16
I700
sg17
g13
sg18
g13
sg19
S'/usr/share/fonts/truetype/liberation/LiberationSerif-BoldItalic.ttf'
p205
sg21
g22
sbag7
(g8
g9
NtRp206
(dp207
g12
g45
sg14
S'DejaVu Serif'
p208
sg16
I400
sg17
g13
sg18
g13
sg19
S'/usr/share/fonts/truetype/dejavu/DejaVuSerif-Italic.ttf'
p209
sg21
g22
sbag7
(g8
g9
NtRp210
(dp211
g12
g13
sg14
S'Liberation Serif'
p212
sg16
I700
sg17
g13
sg18
g13
sg19
S'/usr/share/fonts/truetype/liberation/LiberationSerif-Bold.ttf'
p213
sg21
g22
sbag7
(g8
g9
NtRp214
(dp215
g12
g13
sg14
S'KacstOne'
p216
sg16
I700
sg17
g13
sg18
g13
sg19
S'/usr/share/fonts/truetype/kacst-one/KacstOne-Bold.ttf'
p217
sg21
g22
sbag7
(g8
g9
NtRp218
(dp219
g12
g51
sg14
S'DejaVu Sans Mono'
p220
sg16
I400
sg17
g13
sg18
g13
sg19
S'/usr/share/fonts/truetype/dejavu/DejaVuSansMono-Oblique.ttf'
p221
sg21
g22
sbag7
(g8
g9
NtRp222
(dp223
g12
g13
sg14
S'NanumMyeongjo'
p224
sg16
I700
sg17
g13
sg18
g13
sg19
S'/usr/share/fonts/truetype/nanum/NanumMyeongjoBold.ttf'
p225
sg21
g22
sbag7
(g8
g9
NtRp226
(dp227
g12
g13
sg14
S'Waree'
p228
sg16
I700
sg17
g13
sg18
g13
sg19
S'/usr/share/fonts/truetype/tlwg/Waree-Bold.ttf'
p229
sg21
g22
sbag7
(g8
g9
NtRp230
(dp231
g12
g51
sg14
S'TlwgMono'
p232
sg16
I700
sg17
g13
sg18
g13
sg19
S'/usr/share/fonts/truetype/tlwg/TlwgMono-BoldOblique.ttf'
p233
sg21
g22
sbag7
(g8
g9
NtRp234
(dp235
g12
g13
sg14
S'DejaVu Serif'
p236
sg16
I400
sg17
g47
sg18
g13
sg19
S'/usr/share/fonts/truetype/dejavu/DejaVuSerifCondensed.ttf'
p237
sg21
g22
sbag7
(g8
g9
NtRp238
(dp239
g12
g13
sg14
S'ori1Uni'
p240
sg16
I500
sg17
g13
sg18
g13
sg19
S'/usr/share/fonts/truetype/ttf-indic-fonts-core/utkal.ttf'
p241
sg21
g22
sbag7
(g8
g9
NtRp242
(dp243
g12
g13
sg14
S'KacstQurn'
p244
sg16
I400
sg17
g13
sg18
g13
sg19
S'/usr/share/fonts/truetype/kacst/KacstQurn.ttf'
p245
sg21
g22
sbag7
(g8
g9
NtRp246
(dp247
g12
g13
sg14
S'KacstDigital'
p248
sg16
I400
sg17
g13
sg18
g13
sg19
S'/usr/share/fonts/truetype/kacst/KacstDigital.ttf'
p249
sg21
g22
sbag7
(g8
g9
NtRp250
(dp251
g12
g13
sg14
S'TakaoPGothic'
p252
sg16
I400
sg17
g13
sg18
g13
sg19
S'/usr/share/fonts/truetype/takao-gothic/TakaoPGothic.ttf'
p253
sg21
g22
sbag7
(g8
g9
NtRp254
(dp255
g12
g13
sg14
S'eufm10'
p256
sg16
I400
sg17
g13
sg18
g13
sg19
S'/usr/share/fonts/truetype/lyx/eufm10.ttf'
p257
sg21
g22
sbag7
(g8
g9
NtRp258
(dp259
g12
g13
sg14
S'Lohit Tamil'
p260
sg16
I400
sg17
g13
sg18
g13
sg19
S'/usr/share/fonts/truetype/ttf-indic-fonts-core/lohit_ta.ttf'
p261
sg21
g22
sbag7
(g8
g9
NtRp262
(dp263
g12
g13
sg14
S'esint10'
p264
sg16
I400
sg17
g13
sg18
g13
sg19
S'/usr/share/fonts/truetype/lyx/esint10.ttf'
p265
sg21
g22
sbag7
(g8
g9
NtRp266
(dp267
g12
g13
sg14
S'KacstOffice'
p268
sg16
I400
sg17
g13
sg18
g13
sg19
S'/usr/share/fonts/truetype/kacst/KacstOffice.ttf'
p269
sg21
g22
sbag7
(g8
g9
NtRp270
(dp271
g12
g13
sg14
S'msam10'
p272
sg16
I400
sg17
g13
sg18
g13
sg19
S'/usr/share/fonts/truetype/lyx/msam10.ttf'
p273
sg21
g22
sbag7
(g8
g9
NtRp274
(dp275
g12
g13
sg14
S'DejaVu Serif'
p276
sg16
I700
sg17
g13
sg18
g13
sg19
S'/usr/share/fonts/truetype/ttf-dejavu/DejaVuSerif-Bold.ttf'
p277
sg21
g22
sbag7
(g8
g9
NtRp278
(dp279
g12
g13
sg14
S'Ubuntu Mono'
p280
sg16
I400
sg17
g13
sg18
g13
sg19
S'/usr/share/fonts/truetype/ubuntu-font-family/UbuntuMono-R.ttf'
p281
sg21
g22
sbag7
(g8
g9
NtRp282
(dp283
g12
g13
sg14
S'Norasi'
p284
sg16
I700
sg17
g13
sg18
g13
sg19
S'/usr/share/fonts/truetype/tlwg/Norasi-Bold.ttf'
p285
sg21
g22
sbag7
(g8
g9
NtRp286
(dp287
g12
g45
sg14
S'Norasi'
p288
sg16
I700
sg17
g13
sg18
g13
sg19
S'/usr/share/fonts/truetype/tlwg/Norasi-BoldItalic.ttf'
p289
sg21
g22
sbag7
(g8
g9
NtRp290
(dp291
g12
g13
sg14
S'Umpush'
p292
sg16
I700
sg17
g13
sg18
g13
sg19
S'/usr/share/fonts/truetype/tlwg/Umpush-Bold.ttf'
p293
sg21
g22
sbag7
(g8
g9
NtRp294
(dp295
g12
g45
sg14
S'Liberation Sans'
p296
sg16
I700
sg17
g13
sg18
g13
sg19
S'/usr/share/fonts/truetype/liberation/LiberationSans-BoldItalic.ttf'
p297
sg21
g22
sbag7
(g8
g9
NtRp298
(dp299
g12
g51
sg14
S'Kinnari'
p300
sg16
I700
sg17
g13
sg18
g13
sg19
S'/usr/share/fonts/truetype/tlwg/Kinnari-BoldOblique.ttf'
p301
sg21
g22
sbag7
(g8
g9
NtRp302
(dp303
g12
g13
sg14
S'Mallige'
p304
sg16
I400
sg17
g13
sg18
g13
sg19
S'/usr/share/fonts/truetype/ttf-indic-fonts-core/Malige-n.ttf'
p305
sg21
g22
sbag7
(g8
g9
NtRp306
(dp307
g12
g13
sg14
S'KacstNaskh'
p308
sg16
I400
sg17
g13
sg18
g13
sg19
S'/usr/share/fonts/truetype/kacst/KacstNaskh.ttf'
p309
sg21
g22
sbag7
(g8
g9
NtRp310
(dp311
g12
g13
sg14
S'Rekha'
p312
sg16
I400
sg17
g13
sg18
g13
sg19
S'/usr/share/fonts/truetype/ttf-indic-fonts-core/Rekha.ttf'
p313
sg21
g22
sbag7
(g8
g9
NtRp314
(dp315
g12
g13
sg14
S'Liberation Sans'
p316
sg16
I400
sg17
g13
sg18
g13
sg19
S'/usr/share/fonts/truetype/liberation/LiberationSans-Regular.ttf'
p317
sg21
g22
sbag7
(g8
g9
NtRp318
(dp319
g12
g13
sg14
S'Vemana2000'
p320
sg16
I400
sg17
g13
sg18
g13
sg19
S'/usr/share/fonts/truetype/ttf-indic-fonts-core/Vemana.ttf'
p321
sg21
g22
sbag7
(g8
g9
NtRp322
(dp323
g12
g51
sg14
S'Norasi'
p324
sg16
I700
sg17
g13
sg18
g13
sg19
S'/usr/share/fonts/truetype/tlwg/Norasi-BoldOblique.ttf'
p325
sg21
g22
sbag7
(g8
g9
NtRp326
(dp327
g12
g13
sg14
S'DejaVu Sans'
p328
sg16
I400
sg17
g13
sg18
g13
sg19
S'/usr/share/fonts/truetype/ttf-dejavu/DejaVuSans.ttf'
p329
sg21
g22
sbag7
(g8
g9
NtRp330
(dp331
g12
g13
sg14
S'Sawasdee'
p332
sg16
I400
sg17
g13
sg18
g13
sg19
S'/usr/share/fonts/truetype/tlwg/Sawasdee.ttf'
p333
sg21
g22
sbag7
(g8
g9
NtRp334
(dp335
g12
g13
sg14
S'KacstOne'
p336
sg16
I400
sg17
g13
sg18
g13
sg19
S'/usr/share/fonts/truetype/kacst-one/KacstOne.ttf'
p337
sg21
g22
sbag7
(g8
g9
NtRp338
(dp339
g12
g51
sg14
S'DejaVu Sans Mono'
p340
sg16
I700
sg17
g13
sg18
g13
sg19
S'/usr/share/fonts/truetype/dejavu/DejaVuSansMono-BoldOblique.ttf'
p341
sg21
g22
sbag7
(g8
g9
NtRp342
(dp343
g12
g13
sg14
S'FreeSans'
p344
sg16
I700
sg17
g13
sg18
g13
sg19
S'/usr/share/fonts/truetype/freefont/FreeSansBold.ttf'
p345
sg21
g22
sbag7
(g8
g9
NtRp346
(dp347
g12
g13
sg14
S'Lohit Bengali'
p348
sg16
I400
sg17
g13
sg18
g13
sg19
S'/usr/share/fonts/truetype/ttf-indic-fonts-core/lohit_bn.ttf'
p349
sg21
g22
sbag7
(g8
g9
NtRp350
(dp351
g12
g45
sg14
S'Ubuntu Mono'
p352
sg16
I400
sg17
g13
sg18
g13
sg19
S'/usr/share/fonts/truetype/ubuntu-font-family/UbuntuMono-RI.ttf'
p353
sg21
g22
sbag7
(g8
g9
NtRp354
(dp355
g12
g13
sg14
S'Liberation Serif'
p356
sg16
I400
sg17
g13
sg18
g13
sg19
S'/usr/share/fonts/truetype/liberation/LiberationSerif-Regular.ttf'
p357
sg21
g22
sbag7
(g8
g9
NtRp358
(dp359
g12
g13
sg14
S'Purisa'
p360
sg16
I700
sg17
g13
sg18
g13
sg19
S'/usr/share/fonts/truetype/tlwg/Purisa-Bold.ttf'
p361
sg21
g22
sbag7
(g8
g9
NtRp362
(dp363
g12
g13
sg14
S'FreeMono'
p364
sg16
I700
sg17
g13
sg18
g13
sg19
S'/usr/share/fonts/truetype/freefont/FreeMonoBold.ttf'
p365
sg21
g22
sbag7
(g8
g9
NtRp366
(dp367
g12
g13
sg14
S'DejaVu Sans'
p368
sg16
I700
sg17
g13
sg18
g13
sg19
S'/usr/share/fonts/truetype/ttf-dejavu/DejaVuSans-Bold.ttf'
p369
sg21
g22
sbag7
(g8
g9
NtRp370
(dp371
g12
g13
sg14
S'Tlwg Typist'
p372
sg16
I700
sg17
g13
sg18
g13
sg19
S'/usr/share/fonts/truetype/tlwg/TlwgTypist-Bold.ttf'
p373
sg21
g22
sbag7
(g8
g9
NtRp374
(dp375
g12
g13
sg14
S'Ubuntu'
p376
sg16
I200
sg17
g13
sg18
g13
sg19
S'/usr/share/fonts/truetype/ubuntu-font-family/Ubuntu-L.ttf'
p377
sg21
g22
sbag7
(g8
g9
NtRp378
(dp379
g12
g13
sg14
S'KacstBook'
p380
sg16
I400
sg17
g13
sg18
g13
sg19
S'/usr/share/fonts/truetype/kacst/KacstBook.ttf'
p381
sg21
g22
sbag7
(g8
g9
NtRp382
(dp383
g12
g13
sg14
S'DejaVu Sans'
p384
sg16
I200
sg17
g13
sg18
g13
sg19
S'/usr/share/fonts/truetype/dejavu/DejaVuSans-ExtraLight.ttf'
p385
sg21
g22
sbag7
(g8
g9
NtRp386
(dp387
g12
g13
sg14
S'KacstFarsi'
p388
sg16
I400
sg17
g13
sg18
g13
sg19
S'/usr/share/fonts/truetype/kacst/KacstFarsi.ttf'
p389
sg21
g22
sbag7
(g8
g9
NtRp390
(dp391
g12
g13
sg14
S'KacstPoster'
p392
sg16
I400
sg17
g13
sg18
g13
sg19
S'/usr/share/fonts/truetype/kacst/KacstPoster.ttf'
p393
sg21
g22
sbag7
(g8
g9
NtRp394
(dp395
g12
g13
sg14
S'Purisa'
p396
sg16
I400
sg17
g13
sg18
g13
sg19
S'/usr/share/fonts/truetype/tlwg/Purisa.ttf'
p397
sg21
g22
sbag7
(g8
g9
NtRp398
(dp399
g12
g13
sg14
S'wasy10'
p400
sg16
I400
sg17
g13
sg18
g13
sg19
S'/usr/share/fonts/truetype/lyx/wasy10.ttf'
p401
sg21
g22
sbag7
(g8
g9
NtRp402
(dp403
g12
g45
sg14
S'Ubuntu'
p404
sg16
I200
sg17
g13
sg18
g13
sg19
S'/usr/share/fonts/truetype/ubuntu-font-family/Ubuntu-LI.ttf'
p405
sg21
g22
sbag7
(g8
g9
NtRp406
(dp407
g12
g13
sg14
S'Lohit Punjabi'
p408
sg16
I400
sg17
g13
sg18
g13
sg19
S'/usr/share/fonts/truetype/ttf-punjabi-fonts/lohit_pa.ttf'
p409
sg21
g22
sbag7
(g8
g9
NtRp410
(dp411
g12
g13
sg14
S'Pothana2000'
p412
sg16
I400
sg17
g13
sg18
g13
sg19
S'/usr/share/fonts/truetype/ttf-indic-fonts-core/Pothana2000.ttf'
p413
sg21
g22
sbag7
(g8
g9
NtRp414
(dp415
g12
g51
sg14
S'Umpush'
p416
sg16
I400
sg17
g13
sg18
g13
sg19
S'/usr/share/fonts/truetype/tlwg/Umpush-Oblique.ttf'
p417
sg21
g22
sbag7
(g8
g9
NtRp418
(dp419
g12
g13
sg14
S'NanumGothic'
p420
sg16
I700
sg17
g13
sg18
g13
sg19
S'/usr/share/fonts/truetype/nanum/NanumGothicBold.ttf'
p421
sg21
g22
sbag7
(g8
g9
NtRp422
(dp423
g12
g45
sg14
S'Liberation Mono'
p424
sg16
I700
sg17
g13
sg18
g13
sg19
S'/usr/share/fonts/truetype/liberation/LiberationMono-BoldItalic.ttf'
p425
sg21
g22
sbag7
(g8
g9
NtRp426
(dp427
g12
g13
sg14
S'Padauk'
p428
sg16
I700
sg17
g13
sg18
g13
sg19
S'/usr/share/fonts/truetype/padauk/Padauk-bold.ttf'
p429
sg21
g22
sbag7
(g8
g9
NtRp430
(dp431
g12
g51
sg14
S'Loma'
p432
sg16
I700
sg17
g13
sg18
g13
sg19
S'/usr/share/fonts/truetype/tlwg/Loma-BoldOblique.ttf'
p433
sg21
g22
sbag7
(g8
g9
NtRp434
(dp435
g12
g13
sg14
S'DejaVu Sans'
p436
sg16
I400
sg17
g47
sg18
g13
sg19
S'/usr/share/fonts/truetype/dejavu/DejaVuSansCondensed.ttf'
p437
sg21
g22
sbag7
(g8
g9
NtRp438
(dp439
g12
g13
sg14
S'TlwgTypewriter'
p440
sg16
I400
sg17
g13
sg18
g13
sg19
S'/usr/share/fonts/truetype/tlwg/TlwgTypewriter.ttf'
p441
sg21
g22
sbag7
(g8
g9
NtRp442
(dp443
g12
g45
sg14
S'Kinnari'
p444
sg16
I700
sg17
g13
sg18
g13
sg19
S'/usr/share/fonts/truetype/tlwg/Kinnari-BoldItalic.ttf'
p445
sg21
g22
sbag7
(g8
g9
NtRp446
(dp447
g12
g13
sg14
S'Ubuntu Condensed'
p448
sg16
I400
sg17
g47
sg18
g13
sg19
S'/usr/share/fonts/truetype/ubuntu-font-family/Ubuntu-C.ttf'
p449
sg21
g22
sbag7
(g8
g9
NtRp450
(dp451
g12
g51
sg14
S'DejaVu Sans'
p452
sg16
I700
sg17
g47
sg18
g13
sg19
S'/usr/share/fonts/truetype/dejavu/DejaVuSansCondensed-BoldOblique.ttf'
p453
sg21
g22
sbag7
(g8
g9
NtRp454
(dp455
g12
g13
sg14
S'cmsy10'
p456
sg16
I400
sg17
g13
sg18
g13
sg19
S'/usr/share/fonts/truetype/lyx/cmsy10.ttf'
p457
sg21
g22
sbag7
(g8
g9
NtRp458
(dp459
g12
g13
sg14
S'OpenSymbol'
p460
sg16
I400
sg17
g13
sg18
g13
sg19
S'/usr/share/fonts/truetype/openoffice/opens___.ttf'
p461
sg21
g22
sbag7
(g8
g9
NtRp462
(dp463
g12
g13
sg14
S'gargi'
p464
sg16
I400
sg17
g13
sg18
g13
sg19
S'/usr/share/fonts/truetype/ttf-indic-fonts-core/gargi.ttf'
p465
sg21
g22
sbag7
(g8
g9
NtRp466
(dp467
g12
g45
sg14
S'Norasi'
p468
sg16
I400
sg17
g13
sg18
g13
sg19
S'/usr/share/fonts/truetype/tlwg/Norasi-Italic.ttf'
p469
sg21
g22
sbag7
(g8
g9
NtRp470
(dp471
g12
g13
sg14
S'Khmer OS System'
p472
sg16
I400
sg17
g13
sg18
g13
sg19
S'/usr/share/fonts/truetype/ttf-khmeros-core/KhmerOSsys.ttf'
p473
sg21
g22
sbag7
(g8
g9
NtRp474
(dp475
g12
g51
sg14
S'Tlwg Typist'
p476
sg16
I400
sg17
g13
sg18
g13
sg19
S'/usr/share/fonts/truetype/tlwg/TlwgTypist-Oblique.ttf'
p477
sg21
g22
sbag7
(g8
g9
NtRp478
(dp479
g12
g13
sg14
S'Norasi'
p480
sg16
I400
sg17
g13
sg18
g13
sg19
S'/usr/share/fonts/truetype/tlwg/Norasi.ttf'
p481
sg21
g22
sbag7
(g8
g9
NtRp482
(dp483
g12
g13
sg14
S'Mukti Narrow'
p484
sg16
I700
sg17
g13
sg18
g13
sg19
S'/usr/share/fonts/truetype/ttf-indic-fonts-core/MuktiNarrowBold.ttf'
p485
sg21
g22
sbag7
(g8
g9
NtRp486
(dp487
g12
g45
sg14
S'Liberation Sans'
p488
sg16
I400
sg17
g13
sg18
g13
sg19
S'/usr/share/fonts/truetype/liberation/LiberationSans-Italic.ttf'
p489
sg21
g22
sbag7
(g8
g9
NtRp490
(dp491
g12
g51
sg14
S'Umpush'
p492
sg16
I700
sg17
g13
sg18
g13
sg19
S'/usr/share/fonts/truetype/tlwg/Umpush-BoldOblique.ttf'
p493
sg21
g22
sbag7
(g8
g9
NtRp494
(dp495
g12
g13
sg14
S'Ubuntu'
p496
sg16
I700
sg17
g13
sg18
g13
sg19
S'/usr/share/fonts/truetype/ubuntu-font-family/Ubuntu-B.ttf'
p497
sg21
g22
sbag7
(g8
g9
NtRp498
(dp499
g12
g51
sg14
S'FreeSans'
p500
sg16
I700
sg17
g13
sg18
g13
sg19
S'/usr/share/fonts/truetype/freefont/FreeSansBoldOblique.ttf'
p501
sg21
g22
sbag7
(g8
g9
NtRp502
(dp503
g12
g13
sg14
S'Tlwg Typo'
p504
sg16
I700
sg17
g13
sg18
g13
sg19
S'/usr/share/fonts/truetype/tlwg/TlwgTypo-Bold.ttf'
p505
sg21
g22
sbag7
(g8
g9
NtRp506
(dp507
g12
g45
sg14
S'Ubuntu'
p508
sg16
I400
sg17
g13
sg18
g13
sg19
S'/usr/share/fonts/truetype/ubuntu-font-family/Ubuntu-RI.ttf'
p509
sg21
g22
sbag7
(g8
g9
NtRp510
(dp511
g12
g51
sg14
S'FreeMono'
p512
sg16
I700
sg17
g13
sg18
g13
sg19
S'/usr/share/fonts/truetype/freefont/FreeMonoBoldOblique.ttf'
p513
sg21
g22
sbag7
(g8
g9
NtRp514
(dp515
g12
g13
sg14
S'Padauk Book'
p516
sg16
I700
sg17
g13
sg18
g13
sg19
S'/usr/share/fonts/truetype/padauk/Padauk-bookbold.ttf'
p517
sg21
g22
sbag7
(g8
g9
NtRp518
(dp519
g12
g13
sg14
S'TlwgTypewriter'
p520
sg16
I700
sg17
g13
sg18
g13
sg19
S'/usr/share/fonts/truetype/tlwg/TlwgTypewriter-Bold.ttf'
p521
sg21
g22
sbag7
(g8
g9
NtRp522
(dp523
g12
g51
sg14
S'Waree'
p524
sg16
I700
sg17
g13
sg18
g13
sg19
S'/usr/share/fonts/truetype/tlwg/Waree-BoldOblique.ttf'
p525
sg21
g22
sbag7
(g8
g9
NtRp526
(dp527
g12
g13
sg14
S'FreeSans'
p528
sg16
I400
sg17
g13
sg18
g13
sg19
S'/usr/share/fonts/truetype/freefont/FreeSans.ttf'
p529
sg21
g22
sbag7
(g8
g9
NtRp530
(dp531
g12
g51
sg14
S'Kinnari'
p532
sg16
I400
sg17
g13
sg18
g13
sg19
S'/usr/share/fonts/truetype/tlwg/Kinnari-Oblique.ttf'
p533
sg21
g22
sbag7
(g8
g9
NtRp534
(dp535
g12
g45
sg14
S'FreeSerif'
p536
sg16
I700
sg17
g13
sg18
g13
sg19
S'/usr/share/fonts/truetype/freefont/FreeSerifBoldItalic.ttf'
p537
sg21
g22
sbag7
(g8
g9
NtRp538
(dp539
g12
g45
sg14
S'DejaVu Serif'
p540
sg16
I400
sg17
g47
sg18
g13
sg19
S'/usr/share/fonts/truetype/dejavu/DejaVuSerifCondensed-Italic.ttf'
p541
sg21
g22
sbag7
(g8
g9
NtRp542
(dp543
g12
g13
sg14
S'KacstArt'
p544
sg16
I400
sg17
g13
sg18
g13
sg19
S'/usr/share/fonts/truetype/kacst/KacstArt.ttf'
p545
sg21
g22
sbag7
(g8
g9
NtRp546
(dp547
g12
g51
sg14
S'Tlwg Typo'
p548
sg16
I700
sg17
g13
sg18
g13
sg19
S'/usr/share/fonts/truetype/tlwg/TlwgTypo-BoldOblique.ttf'
p549
sg21
g22
sbag7
(g8
g9
NtRp550
(dp551
g12
g45
sg14
S'Liberation Sans Narrow'
p552
sg16
I700
sg17
g47
sg18
g13
sg19
S'/usr/share/fonts/truetype/liberation/LiberationSansNarrow-BoldItalic.ttf'
p553
sg21
g22
sbag7
(g8
g9
NtRp554
(dp555
g12
g13
sg14
S'Umpush'
p556
sg16
I200
sg17
g13
sg18
g13
sg19
S'/usr/share/fonts/truetype/tlwg/Umpush-Light.ttf'
p557
sg21
g22
sbag7
(g8
g9
NtRp558
(dp559
g12
g13
sg14
S'DejaVu Sans'
p560
sg16
I700
sg17
g47
sg18
g13
sg19
S'/usr/share/fonts/truetype/dejavu/DejaVuSansCondensed-Bold.ttf'
p561
sg21
g22
sbag7
(g8
g9
NtRp562
(dp563
g12
g51
sg14
S'Purisa'
p564
sg16
I700
sg17
g13
sg18
g13
sg19
S'/usr/share/fonts/truetype/tlwg/Purisa-BoldOblique.ttf'
p565
sg21
g22
sbag7
(g8
g9
NtRp566
(dp567
g12
g51
sg14
S'Tlwg Typo'
p568
sg16
I400
sg17
g13
sg18
g13
sg19
S'/usr/share/fonts/truetype/tlwg/TlwgTypo-Oblique.ttf'
p569
sg21
g22
sbag7
(g8
g9
NtRp570
(dp571
g12
g13
sg14
S'Ubuntu Mono'
p572
sg16
I700
sg17
g13
sg18
g13
sg19
S'/usr/share/fonts/truetype/ubuntu-font-family/UbuntuMono-B.ttf'
p573
sg21
g22
sbag7
(g8
g9
NtRp574
(dp575
g12
g13
sg14
S'Kinnari'
p576
sg16
I400
sg17
g13
sg18
g13
sg19
S'/usr/share/fonts/truetype/tlwg/Kinnari.ttf'
p577
sg21
g22
sbag7
(g8
g9
NtRp578
(dp579
g12
g45
sg14
S'Ubuntu Mono'
p580
sg16
I700
sg17
g13
sg18
g13
sg19
S'/usr/share/fonts/truetype/ubuntu-font-family/UbuntuMono-BI.ttf'
p581
sg21
g22
sbag7
(g8
g9
NtRp582
(dp583
g12
g13
sg14
S'Phetsarath OT'
p584
sg16
I400
sg17
g13
sg18
g13
sg19
S'/usr/share/fonts/truetype/lao/Phetsarath_OT.ttf'
p585
sg21
g22
sbag7
(g8
g9
NtRp586
(dp587
g12
g13
sg14
S'cmmi10'
p588
sg16
I400
sg17
g13
sg18
g13
sg19
S'/usr/share/fonts/truetype/lyx/cmmi10.ttf'
p589
sg21
g22
sbag7
(g8
g9
NtRp590
(dp591
g12
g13
sg14
S'Kedage'
p592
sg16
I400
sg17
g13
sg18
g13
sg19
S'/usr/share/fonts/truetype/ttf-indic-fonts-core/Kedage-n.ttf'
p593
sg21
g22
sbag7
(g8
g9
NtRp594
(dp595
g12
g13
sg14
S'Kinnari'
p596
sg16
I700
sg17
g13
sg18
g13
sg19
S'/usr/share/fonts/truetype/tlwg/Kinnari-Bold.ttf'
p597
sg21
g22
sbag7
(g8
g9
NtRp598
(dp599
g12
g51
sg14
S'FreeMono'
p600
sg16
I400
sg17
g13
sg18
g13
sg19
S'/usr/share/fonts/truetype/freefont/FreeMonoOblique.ttf'
p601
sg21
g22
sbag7
(g8
g9
NtRp602
(dp603
g12
g13
sg14
S'TlwgMono'
p604
sg16
I400
sg17
g13
sg18
g13
sg19
S'/usr/share/fonts/truetype/tlwg/TlwgMono.ttf'
p605
sg21
g22
sbag7
(g8
g9
NtRp606
(dp607
g12
g51
sg14
S'TlwgTypewriter'
p608
sg16
I700
sg17
g13
sg18
g13
sg19
S'/usr/share/fonts/truetype/tlwg/TlwgTypewriter-BoldOblique.ttf'
p609
sg21
g22
sbag7
(g8
g9
NtRp610
(dp611
g12
g13
sg14
S'FreeSerif'
p612
sg16
I400
sg17
g13
sg18
g13
sg19
S'/usr/share/fonts/truetype/freefont/FreeSerif.ttf'
p613
sg21
g22
sbag7
(g8
g9
NtRp614
(dp615
g12
g13
sg14
S'Liberation Sans Narrow'
p616
sg16
I400
sg17
g47
sg18
g13
sg19
S'/usr/share/fonts/truetype/liberation/LiberationSansNarrow-Regular.ttf'
p617
sg21
g22
sbag7
(g8
g9
NtRp618
(dp619
g12
g45
sg14
S'Ubuntu'
p620
sg16
I500
sg17
g13
sg18
g13
sg19
S'/usr/share/fonts/truetype/ubuntu-font-family/Ubuntu-MI.ttf'
p621
sg21
g22
sbag7
(g8
g9
NtRp622
(dp623
g12
g51
sg14
S'Purisa'
p624
sg16
I400
sg17
g13
sg18
g13
sg19
S'/usr/share/fonts/truetype/tlwg/Purisa-Oblique.ttf'
p625
sg21
g22
sbag7
(g8
g9
NtRp626
(dp627
g12
g45
sg14
S'Kinnari'
p628
sg16
I400
sg17
g13
sg18
g13
sg19
S'/usr/share/fonts/truetype/tlwg/Kinnari-Italic.ttf'
p629
sg21
g22
sbag7
(g8
g9
NtRp630
(dp631
g12
g51
sg14
S'Sawasdee'
p632
sg16
I700
sg17
g13
sg18
g13
sg19
S'/usr/share/fonts/truetype/tlwg/Sawasdee-BoldOblique.ttf'
p633
sg21
g22
sbag7
(g8
g9
NtRp634
(dp635
g12
g13
sg14
S'Sawasdee'
p636
sg16
I700
sg17
g13
sg18
g13
sg19
S'/usr/share/fonts/truetype/tlwg/Sawasdee-Bold.ttf'
p637
sg21
g22
sbag7
(g8
g9
NtRp638
(dp639
g12
g13
sg14
S'Padauk Book'
p640
sg16
I400
sg17
g13
sg18
g13
sg19
S'/usr/share/fonts/truetype/padauk/Padauk-book.ttf'
p641
sg21
g22
sbag7
(g8
g9
NtRp642
(dp643
g12
g13
sg14
S'Mukti Narrow'
p644
sg16
I400
sg17
g13
sg18
g13
sg19
S'/usr/share/fonts/truetype/ttf-indic-fonts-core/MuktiNarrow.ttf'
p645
sg21
g22
sbag7
(g8
g9
NtRp646
(dp647
g12
g13
sg14
S'Saab'
p648
sg16
I400
sg17
g13
sg18
g13
sg19
S'/usr/share/fonts/truetype/ttf-punjabi-fonts/Saab.ttf'
p649
sg21
g22
sbag7
(g8
g9
NtRp650
(dp651
g12
g13
sg14
S'cmex10'
p652
sg16
I400
sg17
g13
sg18
g13
sg19
S'/usr/share/fonts/truetype/lyx/cmex10.ttf'
p653
sg21
g22
sbag7
(g8
g9
NtRp654
(dp655
g12
g13
sg14
S'Abyssinica SIL'
p656
sg16
I400
sg17
g13
sg18
g13
sg19
S'/usr/share/fonts/truetype/abyssinica/AbyssinicaSIL-R.ttf'
p657
sg21
g22
sbag7
(g8
g9
NtRp658
(dp659
g12
g13
sg14
S'Lohit Gujarati'
p660
sg16
I400
sg17
g13
sg18
g13
sg19
S'/usr/share/fonts/truetype/ttf-indic-fonts-core/lohit_gu.ttf'
p661
sg21
g22
sbag7
(g8
g9
NtRp662
(dp663
g12
g51
sg14
S'Sawasdee'
p664
sg16
I400
sg17
g13
sg18
g13
sg19
S'/usr/share/fonts/truetype/tlwg/Sawasdee-Oblique.ttf'
p665
sg21
g22
sbag7
(g8
g9
NtRp666
(dp667
g12
g13
sg14
S'NanumMyeongjo'
p668
sg16
I400
sg17
g13
sg18
g13
sg19
S'/usr/share/fonts/truetype/nanum/NanumMyeongjo.ttf'
p669
sg21
g22
sbag7
(g8
g9
NtRp670
(dp671
g12
g13
sg14
S'Khmer OS'
p672
sg16
I400
sg17
g13
sg18
g13
sg19
S'/usr/share/fonts/truetype/ttf-khmeros-core/KhmerOS.ttf'
p673
sg21
g22
sbag7
(g8
g9
NtRp674
(dp675
g12
g13
sg14
S'Padauk'
p676
sg16
I400
sg17
g13
sg18
g13
sg19
S'/usr/share/fonts/truetype/padauk/Padauk.ttf'
p677
sg21
g22
sbag7
(g8
g9
NtRp678
(dp679
g12
g13
sg14
S'Loma'
p680
sg16
I400
sg17
g13
sg18
g13
sg19
S'/usr/share/fonts/truetype/tlwg/Loma.ttf'
p681
sg21
g22
sbag7
(g8
g9
NtRp682
(dp683
g12
g51
sg14
S'Garuda'
p684
sg16
I400
sg17
g13
sg18
g13
sg19
S'/usr/share/fonts/truetype/tlwg/Garuda-Oblique.ttf'
p685
sg21
g22
sbag7
(g8
g9
NtRp686
(dp687
g12
g13
sg14
S'Kedage'
p688
sg16
I700
sg17
g13
sg18
g13
sg19
S'/usr/share/fonts/truetype/ttf-indic-fonts-core/Kedage-b.ttf'
p689
sg21
g22
sbag7
(g8
g9
NtRp690
(dp691
g12
g13
sg14
S'Loma'
p692
sg16
I700
sg17
g13
sg18
g13
sg19
S'/usr/share/fonts/truetype/tlwg/Loma-Bold.ttf'
p693
sg21
g22
sbag7
(g8
g9
NtRp694
(dp695
g12
g51
sg14
S'Garuda'
p696
sg16
I700
sg17
g13
sg18
g13
sg19
S'/usr/share/fonts/truetype/tlwg/Garuda-BoldOblique.ttf'
p697
sg21
g22
sbag7
(g8
g9
NtRp698
(dp699
g12
g13
sg14
S'KacstLetter'
p700
sg16
I400
sg17
g13
sg18
g13
sg19
S'/usr/share/fonts/truetype/kacst/KacstLetter.ttf'
p701
sg21
g22
sbag7
(g8
g9
NtRp702
(dp703
g12
g13
sg14
S'Lohit Hindi'
p704
sg16
I400
sg17
g13
sg18
g13
sg19
S'/usr/share/fonts/truetype/ttf-indic-fonts-core/lohit_hi.ttf'
p705
sg21
g22
sbag7
(g8
g9
NtRp706
(dp707
g12
g13
sg14
S'KacstPen'
p708
sg16
I400
sg17
g13
sg18
g13
sg19
S'/usr/share/fonts/truetype/kacst/KacstPen.ttf'
p709
sg21
g22
sbag7
(g8
g9
NtRp710
(dp711
g12
g13
sg14
S'Waree'
p712
sg16
I400
sg17
g13
sg18
g13
sg19
S'/usr/share/fonts/truetype/tlwg/Waree.ttf'
p713
sg21
g22
sbag7
(g8
g9
NtRp714
(dp715
g12
g13
sg14
S'FreeMono'
p716
sg16
I400
sg17
g13
sg18
g13
sg19
S'/usr/share/fonts/truetype/freefont/FreeMono.ttf'
p717
sg21
g22
sbag7
(g8
g9
NtRp718
(dp719
g12
g45
sg14
S'FreeSerif'
p720
sg16
I400
sg17
g13
sg18
g13
sg19
S'/usr/share/fonts/truetype/freefont/FreeSerifItalic.ttf'
p721
sg21
g22
sbag7
(g8
g9
NtRp722
(dp723
g12
g13
sg14
S'KacstTitleL'
p724
sg16
I400
sg17
g13
sg18
g13
sg19
S'/usr/share/fonts/truetype/kacst/KacstTitleL.ttf'
p725
sg21
g22
sbag7
(g8
g9
NtRp726
(dp727
g12
g13
sg14
S'KacstDecorative'
p728
sg16
I400
sg17
g13
sg18
g13
sg19
S'/usr/share/fonts/truetype/kacst/KacstDecorative.ttf'
p729
sg21
g22
sbag7
(g8
g9
NtRp730
(dp731
g12
g51
sg14
S'TlwgTypewriter'
p732
sg16
I400
sg17
g13
sg18
g13
sg19
S'/usr/share/fonts/truetype/tlwg/TlwgTypewriter-Oblique.ttf'
p733
sg21
g22
sbag7
(g8
g9
NtRp734
(dp735
g12
g45
sg14
S'Liberation Sans Narrow'
p736
sg16
I400
sg17
g47
sg18
g13
sg19
S'/usr/share/fonts/truetype/liberation/LiberationSansNarrow-Italic.ttf'
p737
sg21
g22
sbasS'defaultFamily'
p738
(dp739
S'afm'
p740
S'Helvetica'
p741
sS'ttf'
p742
S'Bitstream Vera Sans'
p743
ssS'ttffiles'
p744
(lp745
S'/usr/share/fonts/truetype/kacst/KacstTitle.ttf'
p746
aS'/usr/share/fonts/truetype/lyx/cmr10.ttf'
p747
aS'/usr/share/fonts/truetype/ttf-indic-fonts-core/Malige-b.ttf'
p748
aS'/usr/share/fonts/truetype/ubuntu-font-family/Ubuntu-M.ttf'
p749
aS'/usr/share/fonts/truetype/tlwg/Umpush.ttf'
p750
aS'/usr/share/fonts/truetype/tlwg/Garuda-Bold.ttf'
p751
aS'/usr/share/fonts/truetype/dejavu/DejaVuSerifCondensed-BoldItalic.ttf'
p752
aS'/usr/share/fonts/truetype/tlwg/TlwgTypist-BoldOblique.ttf'
p753
aS'/usr/share/fonts/truetype/kacst/KacstScreen.ttf'
p754
aS'/usr/share/fonts/truetype/tlwg/Loma-Oblique.ttf'
p755
aS'/usr/share/fonts/truetype/tlwg/Norasi-Oblique.ttf'
p756
aS'/usr/share/fonts/truetype/ttf-dejavu/DejaVuSansMono.ttf'
p757
aS'/usr/share/fonts/truetype/ubuntu-font-family/Ubuntu-BI.ttf'
p758
aS'/usr/share/fonts/truetype/ttf-indic-fonts-core/Meera_04.ttf'
p759
aS'/usr/share/fonts/truetype/fonts-japanese-gothic.ttf'
p760
aS'/usr/share/fonts/truetype/liberation/LiberationMono-Bold.ttf'
p761
aS'/usr/share/fonts/truetype/dejavu/DejaVuSerif.ttf'
p762
aS'/usr/share/fonts/truetype/tlwg/Umpush-LightOblique.ttf'
p763
aS'/usr/share/fonts/truetype/freefont/FreeSerifBold.ttf'
p764
aS'/usr/share/fonts/truetype/tlwg/Waree-Oblique.ttf'
p765
aS'/usr/share/fonts/truetype/tlwg/TlwgTypo.ttf'
p766
aS'/usr/share/fonts/truetype/dejavu/DejaVuSerif-BoldItalic.ttf'
p767
aS'/usr/share/fonts/truetype/liberation/LiberationSerif-Italic.ttf'
p768
aS'/usr/share/fonts/truetype/sinhala/lklug.ttf'
p769
aS'/usr/share/fonts/truetype/ttf-indic-fonts-core/Rachana_04.ttf'
p770
aS'/usr/share/fonts/truetype/ttf-dejavu/DejaVuSerif.ttf'
p771
aS'/usr/share/fonts/truetype/liberation/LiberationSansNarrow-Bold.ttf'
p772
aS'/usr/share/fonts/truetype/freefont/FreeSansOblique.ttf'
p773
aS'/usr/share/fonts/truetype/liberation/LiberationSans-Bold.ttf'
p774
aS'/usr/share/fonts/truetype/dejavu/DejaVuSansMono-Bold.ttf'
p775
aS'/usr/share/fonts/truetype/dejavu/DejaVuSerifCondensed-Bold.ttf'
p776
aS'/usr/share/fonts/truetype/liberation/LiberationMono-Regular.ttf'
p777
aS'/usr/share/fonts/truetype/ubuntu-font-family/Ubuntu-R.ttf'
p778
aS'/usr/share/fonts/truetype/lyx/rsfs10.ttf'
p779
aS'/usr/share/fonts/truetype/dejavu/DejaVuSansCondensed-Oblique.ttf'
p780
aS'/usr/share/fonts/truetype/tlwg/Garuda.ttf'
p781
aS'/usr/share/fonts/truetype/tlwg/TlwgMono-Oblique.ttf'
p782
aS'/usr/share/fonts/truetype/dejavu/DejaVuSans-Oblique.ttf'
p783
aS'/usr/share/fonts/truetype/tlwg/TlwgTypist.ttf'
p784
aS'/usr/share/fonts/truetype/nanum/NanumGothic.ttf'
p785
aS'/usr/share/fonts/truetype/dejavu/DejaVuSans-BoldOblique.ttf'
p786
aS'/usr/share/fonts/truetype/kacst/mry_KacstQurn.ttf'
p787
aS'/usr/share/fonts/truetype/tlwg/TlwgMono-Bold.ttf'
p788
aS'/usr/share/fonts/truetype/liberation/LiberationMono-Italic.ttf'
p789
aS'/usr/share/fonts/truetype/tibetan-machine/TibetanMachineUni.ttf'
p790
aS'/usr/share/fonts/truetype/lyx/msbm10.ttf'
p791
aS'/usr/share/fonts/truetype/liberation/LiberationSerif-BoldItalic.ttf'
p792
aS'/usr/share/fonts/truetype/dejavu/DejaVuSerif-Italic.ttf'
p793
aS'/usr/share/fonts/truetype/liberation/LiberationSerif-Bold.ttf'
p794
aS'/usr/share/fonts/truetype/kacst-one/KacstOne-Bold.ttf'
p795
aS'/usr/share/fonts/truetype/dejavu/DejaVuSansMono-Oblique.ttf'
p796
aS'/usr/share/fonts/truetype/nanum/NanumMyeongjoBold.ttf'
p797
aS'/usr/share/fonts/truetype/tlwg/Waree-Bold.ttf'
p798
aS'/usr/share/fonts/truetype/tlwg/TlwgMono-BoldOblique.ttf'
p799
aS'/usr/share/fonts/truetype/dejavu/DejaVuSerifCondensed.ttf'
p800
aS'/usr/share/fonts/truetype/ttf-indic-fonts-core/utkal.ttf'
p801
aS'/usr/share/fonts/truetype/kacst/KacstQurn.ttf'
p802
aS'/usr/share/fonts/truetype/kacst/KacstDigital.ttf'
p803
aS'/usr/share/fonts/truetype/takao-gothic/TakaoPGothic.ttf'
p804
aS'/usr/share/fonts/truetype/lyx/eufm10.ttf'
p805
aS'/usr/share/fonts/truetype/ttf-indic-fonts-core/lohit_ta.ttf'
p806
aS'/usr/share/fonts/truetype/lyx/esint10.ttf'
p807
aS'/usr/share/fonts/truetype/kacst/KacstOffice.ttf'
p808
aS'/usr/share/fonts/truetype/lyx/msam10.ttf'
p809
aS'/usr/share/fonts/truetype/ttf-dejavu/DejaVuSerif-Bold.ttf'
p810
aS'/usr/share/fonts/truetype/ubuntu-font-family/UbuntuMono-R.ttf'
p811
aS'/usr/share/fonts/truetype/tlwg/Norasi-Bold.ttf'
p812
aS'/usr/share/fonts/truetype/tlwg/Norasi-BoldItalic.ttf'
p813
aS'/usr/share/fonts/truetype/tlwg/Umpush-Bold.ttf'
p814
aS'/usr/share/fonts/truetype/liberation/LiberationSans-BoldItalic.ttf'
p815
aS'/usr/share/fonts/truetype/tlwg/Kinnari-BoldOblique.ttf'
p816
aS'/usr/share/fonts/truetype/ttf-indic-fonts-core/Malige-n.ttf'
p817
aS'/usr/share/fonts/truetype/kacst/KacstNaskh.ttf'
p818
aS'/usr/share/fonts/truetype/ttf-indic-fonts-core/Rekha.ttf'
p819
aS'/usr/share/fonts/truetype/liberation/LiberationSans-Regular.ttf'
p820
aS'/usr/share/fonts/truetype/ttf-indic-fonts-core/Vemana.ttf'
p821
aS'/usr/share/fonts/truetype/tlwg/Norasi-BoldOblique.ttf'
p822
aS'/usr/share/fonts/truetype/ttf-dejavu/DejaVuSans.ttf'
p823
aS'/usr/share/fonts/truetype/tlwg/Sawasdee.ttf'
p824
aS'/usr/share/fonts/truetype/kacst-one/KacstOne.ttf'
p825
aS'/usr/share/fonts/truetype/dejavu/DejaVuSansMono-BoldOblique.ttf'
p826
aS'/usr/share/fonts/truetype/freefont/FreeSansBold.ttf'
p827
aS'/usr/share/fonts/truetype/ttf-indic-fonts-core/lohit_bn.ttf'
p828
aS'/usr/share/fonts/truetype/ubuntu-font-family/UbuntuMono-RI.ttf'
p829
aS'/usr/share/fonts/truetype/liberation/LiberationSerif-Regular.ttf'
p830
aS'/usr/share/fonts/truetype/tlwg/Purisa-Bold.ttf'
p831
aS'/usr/share/fonts/truetype/freefont/FreeMonoBold.ttf'
p832
aS'/usr/share/fonts/truetype/ttf-dejavu/DejaVuSans-Bold.ttf'
p833
aS'/usr/share/fonts/truetype/tlwg/TlwgTypist-Bold.ttf'
p834
aS'/usr/share/fonts/truetype/ubuntu-font-family/Ubuntu-L.ttf'
p835
aS'/usr/share/fonts/truetype/kacst/KacstBook.ttf'
p836
aS'/usr/share/fonts/truetype/dejavu/DejaVuSans-ExtraLight.ttf'
p837
aS'/usr/share/fonts/truetype/kacst/KacstFarsi.ttf'
p838
aS'/usr/share/fonts/truetype/kacst/KacstPoster.ttf'
p839
aS'/usr/share/fonts/truetype/tlwg/Purisa.ttf'
p840
aS'/usr/share/fonts/truetype/lyx/wasy10.ttf'
p841
aS'/usr/share/fonts/truetype/ubuntu-font-family/Ubuntu-LI.ttf'
p842
aS'/usr/share/fonts/truetype/ttf-punjabi-fonts/lohit_pa.ttf'
p843
aS'/usr/share/fonts/truetype/ttf-indic-fonts-core/Pothana2000.ttf'
p844
aS'/usr/share/fonts/truetype/tlwg/Umpush-Oblique.ttf'
p845
aS'/usr/share/fonts/truetype/nanum/NanumGothicBold.ttf'
p846
aS'/usr/share/fonts/truetype/liberation/LiberationMono-BoldItalic.ttf'
p847
aS'/usr/share/fonts/truetype/padauk/Padauk-bold.ttf'
p848
aS'/usr/share/fonts/truetype/tlwg/Loma-BoldOblique.ttf'
p849
aS'/usr/share/fonts/truetype/dejavu/DejaVuSansCondensed.ttf'
p850
aS'/usr/share/fonts/truetype/dejavu/DejaVuSansMono.ttf'
p851
aS'/usr/share/fonts/truetype/tlwg/TlwgTypewriter.ttf'
p852
aS'/usr/share/fonts/truetype/tlwg/Kinnari-BoldItalic.ttf'
p853
aS'/usr/share/fonts/truetype/ubuntu-font-family/Ubuntu-C.ttf'
p854
aS'/usr/share/fonts/truetype/dejavu/DejaVuSansCondensed-BoldOblique.ttf'
p855
aS'/usr/share/fonts/truetype/lyx/cmsy10.ttf'
p856
aS'/usr/share/fonts/truetype/openoffice/opens___.ttf'
p857
aS'/usr/share/fonts/truetype/ttf-indic-fonts-core/gargi.ttf'
p858
aS'/usr/share/fonts/truetype/tlwg/Norasi-Italic.ttf'
p859
aS'/usr/share/fonts/truetype/ttf-khmeros-core/KhmerOSsys.ttf'
p860
aS'/usr/share/fonts/truetype/tlwg/TlwgTypist-Oblique.ttf'
p861
aS'/usr/share/fonts/truetype/tlwg/Norasi.ttf'
p862
aS'/usr/share/fonts/truetype/ttf-indic-fonts-core/MuktiNarrowBold.ttf'
p863
aS'/usr/share/fonts/truetype/liberation/LiberationSans-Italic.ttf'
p864
aS'/usr/share/fonts/truetype/tlwg/Umpush-BoldOblique.ttf'
p865
aS'/usr/share/fonts/truetype/ubuntu-font-family/Ubuntu-B.ttf'
p866
aS'/usr/share/fonts/truetype/freefont/FreeSansBoldOblique.ttf'
p867
aS'/usr/share/fonts/truetype/tlwg/TlwgTypo-Bold.ttf'
p868
aS'/usr/share/fonts/truetype/dejavu/DejaVuSans-Bold.ttf'
p869
aS'/usr/share/fonts/truetype/ubuntu-font-family/Ubuntu-RI.ttf'
p870
aS'/usr/share/fonts/truetype/freefont/FreeMonoBoldOblique.ttf'
p871
aS'/usr/share/fonts/truetype/padauk/Padauk-bookbold.ttf'
p872
aS'/usr/share/fonts/truetype/tlwg/TlwgTypewriter-Bold.ttf'
p873
aS'/usr/share/fonts/truetype/tlwg/Waree-BoldOblique.ttf'
p874
aS'/usr/share/fonts/truetype/freefont/FreeSans.ttf'
p875
aS'/usr/share/fonts/truetype/tlwg/Kinnari-Oblique.ttf'
p876
aS'/usr/share/fonts/truetype/ttf-dejavu/DejaVuSansMono-Bold.ttf'
p877
aS'/usr/share/fonts/truetype/freefont/FreeSerifBoldItalic.ttf'
p878
aS'/usr/share/fonts/truetype/dejavu/DejaVuSerifCondensed-Italic.ttf'
p879
aS'/usr/share/fonts/truetype/kacst/KacstArt.ttf'
p880
aS'/usr/share/fonts/truetype/tlwg/TlwgTypo-BoldOblique.ttf'
p881
aS'/usr/share/fonts/truetype/liberation/LiberationSansNarrow-BoldItalic.ttf'
p882
aS'/usr/share/fonts/truetype/tlwg/Umpush-Light.ttf'
p883
aS'/usr/share/fonts/truetype/dejavu/DejaVuSans.ttf'
p884
aS'/usr/share/fonts/truetype/dejavu/DejaVuSansCondensed-Bold.ttf'
p885
aS'/usr/share/fonts/truetype/tlwg/Purisa-BoldOblique.ttf'
p886
aS'/usr/share/fonts/truetype/tlwg/TlwgTypo-Oblique.ttf'
p887
aS'/usr/share/fonts/truetype/ubuntu-font-family/UbuntuMono-B.ttf'
p888
aS'/usr/share/fonts/truetype/tlwg/Kinnari.ttf'
p889
aS'/usr/share/fonts/truetype/ubuntu-font-family/UbuntuMono-BI.ttf'
p890
aS'/usr/share/fonts/truetype/lao/Phetsarath_OT.ttf'
p891
aS'/usr/share/fonts/truetype/lyx/cmmi10.ttf'
p892
aS'/usr/share/fonts/truetype/ttf-indic-fonts-core/Kedage-n.ttf'
p893
aS'/usr/share/fonts/truetype/tlwg/Kinnari-Bold.ttf'
p894
aS'/usr/share/fonts/truetype/freefont/FreeMonoOblique.ttf'
p895
aS'/usr/share/fonts/truetype/tlwg/TlwgMono.ttf'
p896
aS'/usr/share/fonts/truetype/tlwg/TlwgTypewriter-BoldOblique.ttf'
p897
aS'/usr/share/fonts/truetype/dejavu/DejaVuSerif-Bold.ttf'
p898
aS'/usr/share/fonts/truetype/freefont/FreeSerif.ttf'
p899
aS'/usr/share/fonts/truetype/liberation/LiberationSansNarrow-Regular.ttf'
p900
aS'/usr/share/fonts/truetype/ubuntu-font-family/Ubuntu-MI.ttf'
p901
aS'/usr/share/fonts/truetype/tlwg/Purisa-Oblique.ttf'
p902
aS'/usr/share/fonts/truetype/tlwg/Kinnari-Italic.ttf'
p903
aS'/usr/share/fonts/truetype/tlwg/Sawasdee-BoldOblique.ttf'
p904
aS'/usr/share/fonts/truetype/tlwg/Sawasdee-Bold.ttf'
p905
aS'/usr/share/fonts/truetype/padauk/Padauk-book.ttf'
p906
aS'/usr/share/fonts/truetype/ttf-indic-fonts-core/MuktiNarrow.ttf'
p907
aS'/usr/share/fonts/truetype/ttf-punjabi-fonts/Saab.ttf'
p908
aS'/usr/share/fonts/truetype/lyx/cmex10.ttf'
p909
aS'/usr/share/fonts/truetype/abyssinica/AbyssinicaSIL-R.ttf'
p910
aS'/usr/share/fonts/truetype/ttf-indic-fonts-core/lohit_gu.ttf'
p911
aS'/usr/share/fonts/truetype/tlwg/Sawasdee-Oblique.ttf'
p912
aS'/usr/share/fonts/truetype/nanum/NanumMyeongjo.ttf'
p913
aS'/usr/share/fonts/truetype/ttf-khmeros-core/KhmerOS.ttf'
p914
aS'/usr/share/fonts/truetype/padauk/Padauk.ttf'
p915
aS'/usr/share/fonts/truetype/tlwg/Loma.ttf'
p916
aS'/usr/share/fonts/truetype/tlwg/Garuda-Oblique.ttf'
p917
aS'/usr/share/fonts/truetype/ttf-indic-fonts-core/Kedage-b.ttf'
p918
aS'/usr/share/fonts/truetype/tlwg/Loma-Bold.ttf'
p919
aS'/usr/share/fonts/truetype/tlwg/Garuda-BoldOblique.ttf'
p920
aS'/usr/share/fonts/truetype/kacst/KacstLetter.ttf'
p921
aS'/usr/share/fonts/truetype/ttf-indic-fonts-core/lohit_hi.ttf'
p922
aS'/usr/share/fonts/truetype/kacst/KacstPen.ttf'
p923
aS'/usr/share/fonts/truetype/tlwg/Waree.ttf'
p924
aS'/usr/share/fonts/truetype/freefont/FreeMono.ttf'
p925
aS'/usr/share/fonts/truetype/freefont/FreeSerifItalic.ttf'
p926
aS'/usr/share/fonts/truetype/kacst/KacstTitleL.ttf'
p927
aS'/usr/share/fonts/truetype/kacst/KacstDecorative.ttf'
p928
aS'/usr/share/fonts/truetype/tlwg/TlwgTypewriter-Oblique.ttf'
p929
aS'/usr/share/fonts/truetype/liberation/LiberationSansNarrow-Italic.ttf'
p930
asS'_FontManager__default_weight'
p931
g13
sS'_version'
p932
I101
sS'ttf_lookup_cache'
p933
(dp934
sS'default_size'
p935
NsS'defaultFont'
p936
(dp937
g740
S'/usr/share/fonts/type1/gsfonts/n021024l.afm'
p938
sg742
g746
ssS'afmfiles'
p939
(lp940
g938
aS'/usr/share/fonts/type1/gsfonts/n019024l.afm'
p941
aS'/usr/share/fonts/type1/gsfonts/n021004l.afm'
p942
aS'/usr/share/fonts/X11/Type1/lmss10.afm'
p943
aS'/usr/share/fonts/X11/Type1/lmtt10.afm'
p944
aS'/usr/share/fonts/type1/gsfonts/s050000l.afm'
p945
aS'/usr/share/fonts/type1/gsfonts/d050000l.afm'
p946
aS'/usr/share/fonts/type1/gsfonts/p052004l.afm'
p947
aS'/usr/share/fonts/X11/Type1/lmssqbx8.afm'
p948
aS'/usr/share/fonts/X11/Type1/lmbx10.afm'
p949
aS'/usr/share/fonts/X11/Type1/lmssqo8.afm'
p950
aS'/usr/share/fonts/type1/gsfonts/n019064l.afm'
p951
aS'/usr/share/fonts/type1/gsfonts/n022003l.afm'
p952
aS'/usr/share/fonts/X11/Type1/c0583bt_.afm'
p953
aS'/usr/share/fonts/type1/gsfonts/c059013l.afm'
p954
aS'/usr/share/fonts/type1/gsfonts/a010033l.afm'
p955
aS'/usr/share/fonts/X11/Type1/lmtk10.afm'
p956
aS'/usr/share/fonts/type1/gsfonts/n019044l.afm'
p957
aS'/usr/share/fonts/type1/gsfonts/z003034l.afm'
p958
aS'/usr/share/fonts/X11/Type1/Symbol.afm'
p959
aS'/usr/share/fonts/type1/gsfonts/n022024l.afm'
p960
aS'/usr/share/fonts/X11/Type1/lmtcsc10.afm'
p961
aS'/usr/share/fonts/X11/Type1/c0611bt_.afm'
p962
aS'/usr/share/fonts/X11/Type1/lmbxi10.afm'
p963
aS'/usr/share/fonts/type1/gsfonts/n019043l.afm'
p964
aS'/usr/share/fonts/X11/Type1/lmb10.afm'
p965
aS'/usr/share/fonts/X11/Type1/c0633bt_.afm'
p966
aS'/usr/share/fonts/X11/Type1/lmvtto10.afm'
p967
aS'/usr/share/fonts/X11/Type1/lmdunh10.afm'
p968
aS'/usr/share/fonts/X11/Type1/c0649bt_.afm'
p969
aS'/usr/share/fonts/X11/Type1/lmssbx10.afm'
p970
aS'/usr/share/fonts/type1/gsfonts/b018012l.afm'
p971
aS'/usr/share/fonts/type1/gsfonts/n019003l.afm'
p972
aS'/usr/share/fonts/X11/Type1/lmtto10.afm'
p973
aS'/usr/share/fonts/type1/gsfonts/p052024l.afm'
p974
aS'/usr/share/fonts/type1/gsfonts/b018035l.afm'
p975
aS'/usr/share/fonts/X11/Type1/lmvtt10.afm'
p976
aS'/usr/share/fonts/X11/Type1/lmvtk10.afm'
p977
aS'/usr/share/fonts/X11/Type1/lmduno10.afm'
p978
aS'/usr/share/fonts/type1/gsfonts/a010013l.afm'
p979
aS'/usr/share/fonts/X11/Type1/c0582bt_.afm'
p980
aS'/usr/share/fonts/X11/Type1/lmssdo10.afm'
p981
aS'/usr/share/fonts/type1/gsfonts/n022004l.afm'
p982
aS'/usr/share/fonts/X11/Type1/lmssq8.afm'
p983
aS'/usr/share/fonts/type1/mathml/Symbol.afm'
p984
aS'/usr/share/fonts/X11/Type1/lmtti10.afm'
p985
aS'/usr/share/fonts/X11/Type1/lmro10.afm'
p986
aS'/usr/share/fonts/type1/gsfonts/n021003l.afm'
p987
aS'/usr/share/fonts/type1/gsfonts/c059033l.afm'
p988
aS'/usr/share/fonts/X11/Type1/lmcsc10.afm'
p989
aS'/usr/share/fonts/type1/gsfonts/n019023l.afm'
p990
aS'/usr/share/fonts/X11/Type1/lmbxo10.afm'
p991
aS'/usr/share/fonts/X11/Type1/lmtko10.afm'
p992
aS'/usr/share/fonts/X11/Type1/lmvtko10.afm'
p993
aS'/usr/share/fonts/X11/Type1/lmsso10.afm'
p994
aS'/usr/share/fonts/X11/Type1/lmbo10.afm'
p995
aS'/usr/share/fonts/type1/gsfonts/p052023l.afm'
p996
aS'/usr/share/fonts/X11/Type1/lmri10.afm'
p997
aS'/usr/share/fonts/type1/gsfonts/n019004l.afm'
p998
aS'/usr/share/fonts/X11/Type1/lmssqbo8.afm'
p999
aS'/usr/share/fonts/type1/gsfonts/p052003l.afm'
p1000
aS'/usr/share/fonts/X11/Type1/lmr10.afm'
p1001
aS'/usr/share/fonts/type1/gsfonts/a010015l.afm'
p1002
aS'/usr/share/fonts/X11/Type1/lmu10.afm'
p1003
aS'/usr/share/fonts/X11/Type1/lmssdc10.afm'
p1004
aS'/usr/share/fonts/type1/gsfonts/c059036l.afm'
p1005
aS'/usr/share/fonts/type1/gsfonts/b018032l.afm'
p1006
aS'/usr/share/fonts/X11/Type1/lmcsco10.afm'
p1007
aS'/usr/share/fonts/X11/Type1/lmtl10.afm'
p1008
aS'/usr/share/fonts/type1/gsfonts/c059016l.afm'
p1009
aS'/usr/share/fonts/X11/Type1/c0648bt_.afm'
p1010
aS'/usr/share/fonts/type1/gsfonts/n022023l.afm'
p1011
aS'/usr/share/fonts/X11/Type1/lmtlco10.afm'
p1012
aS'/usr/share/fonts/X11/Type1/lmtlc10.afm'
p1013
aS'/usr/share/fonts/type1/gsfonts/n021023l.afm'
p1014
aS'/usr/share/fonts/X11/Type1/lmtlo10.afm'
p1015
aS'/usr/share/fonts/X11/Type1/lmssbo10.afm'
p1016
aS'/usr/share/fonts/X11/Type1/c0632bt_.afm'
p1017
aS'/usr/share/fonts/X11/Type1/lmvtl10.afm'
p1018
aS'/usr/share/fonts/type1/gsfonts/a010035l.afm'
p1019
aS'/usr/share/fonts/type1/gsfonts/n019063l.afm'
p1020
aS'/usr/share/fonts/X11/Type1/c0419bt_.afm'
p1021
aS'/usr/share/fonts/X11/Type1/lmvtlo10.afm'
p1022
aS'/usr/share/fonts/type1/gsfonts/b018015l.afm'
p1023
aS'/usr/share/fonts/X11/Type1/lmtcso10.afm'
p1024
asS'afmlist'
p1025
(lp1026
g7
(g8
g9
NtRp1027
(dp1028
g12
g45
sg14
S'Nimbus Roman No9 L'
p1029
sg16
I700
sg17
g13
sg18
g13
sg19
g938
sg21
g22
sbag7
(g8
g9
NtRp1030
(dp1031
g12
g45
sg14
S'Nimbus Sans L'
p1032
sg16
I700
sg17
g13
sg18
g13
sg19
g941
sg21
g22
sbag7
(g8
g9
NtRp1033
(dp1034
g12
g13
sg14
S'Nimbus Roman No9 L'
p1035
sg16
I700
sg17
g13
sg18
g13
sg19
g942
sg21
g22
sbag7
(g8
g9
NtRp1036
(dp1037
g12
g13
sg14
S'LMSans10'
p1038
sg16
I400
sg17
g13
sg18
g13
sg19
g943
sg21
g22
sbag7
(g8
g9
NtRp1039
(dp1040
g12
g13
sg14
S'LMMono10'
p1041
sg16
I400
sg17
g13
sg18
g13
sg19
g944
sg21
g22
sbag7
(g8
g9
NtRp1042
(dp1043
g12
g13
sg14
S'Standard Symbols L'
p1044
sg16
I400
sg17
g13
sg18
g13
sg19
g945
sg21
g22
sbag7
(g8
g9
NtRp1045
(dp1046
g12
g13
sg14
S'Dingbats'
p1047
sg16
I400
sg17
g13
sg18
g13
sg19
g946
sg21
g22
sbag7
(g8
g9
NtRp1048
(dp1049
g12
g13
sg14
S'URW Palladio L'
p1050
sg16
I700
sg17
g13
sg18
g13
sg19
g947
sg21
g22
sbag7
(g8
g9
NtRp1051
(dp1052
g12
g13
sg14
S'LMSansQuot8'
p1053
sg16
I700
sg17
g13
sg18
g13
sg19
g948
sg21
g22
sbag7
(g8
g9
NtRp1054
(dp1055
g12
g13
sg14
S'LMRoman10'
p1056
sg16
I700
sg17
g13
sg18
g13
sg19
g949
sg21
g22
sbag7
(g8
g9
NtRp1057
(dp1058
g12
g45
sg14
S'LMSansQuot8'
p1059
sg16
I400
sg17
g13
sg18
g13
sg19
g950
sg21
g22
sbag7
(g8
g9
NtRp1060
(dp1061
g12
g45
sg14
S'Nimbus Sans L'
p1062
sg16
I700
sg17
g47
sg18
g13
sg19
g951
sg21
g22
sbag7
(g8
g9
NtRp1063
(dp1064
g12
g13
sg14
S'Nimbus Mono L'
p1065
sg16
I400
sg17
g13
sg18
g13
sg19
g952
sg21
g22
sbag7
(g8
g9
NtRp1066
(dp1067
g12
g13
sg14
S'Courier 10 Pitch'
p1068
sg16
I700
sg17
g13
sg18
g13
sg19
g953
sg21
g22
sbag7
(g8
g9
NtRp1069
(dp1070
g12
g13
sg14
S'Century Schoolbook L'
p1071
sg16
I500
sg17
g13
sg18
g13
sg19
g954
sg21
g22
sbag7
(g8
g9
NtRp1072
(dp1073
g12
g45
sg14
S'URW Gothic L'
p1074
sg16
I400
sg17
g13
sg18
g13
sg19
g955
sg21
g22
sbag7
(g8
g9
NtRp1075
(dp1076
g12
g13
sg14
S'LMMonoLt10'
p1077
sg16
I700
sg17
g13
sg18
g13
sg19
g956
sg21
g22
sbag7
(g8
g9
NtRp1078
(dp1079
g12
g13
sg14
S'Nimbus Sans L'
p1080
sg16
I700
sg17
g47
sg18
g13
sg19
g957
sg21
g22
sbag7
(g8
g9
NtRp1081
(dp1082
g12
g45
sg14
S'URW Chancery L'
p1083
sg16
I500
sg17
g13
sg18
g13
sg19
g958
sg21
g22
sbag7
(g8
g9
NtRp1084
(dp1085
g12
g13
sg14
S'Symbol'
p1086
sg16
I400
sg17
g13
sg18
g13
sg19
g959
sg21
g22
sbag7
(g8
g9
NtRp1087
(dp1088
g12
g45
sg14
S'Nimbus Mono L'
p1089
sg16
I700
sg17
g13
sg18
g13
sg19
g960
sg21
g22
sbag7
(g8
g9
NtRp1090
(dp1091
g12
g13
sg14
S'LMMonoCaps10'
p1092
sg16
I400
sg17
g13
sg18
g13
sg19
g961
sg21
g22
sbag7
(g8
g9
NtRp1093
(dp1094
g12
g45
sg14
S'Courier 10 Pitch'
p1095
sg16
I700
sg17
g13
sg18
g13
sg19
g962
sg21
g22
sbag7
(g8
g9
NtRp1096
(dp1097
g12
g45
sg14
S'LMRoman10'
p1098
sg16
I700
sg17
g13
sg18
g13
sg19
g963
sg21
g22
sbag7
(g8
g9
NtRp1099
(dp1100
g12
g13
sg14
S'Nimbus Sans L'
p1101
sg16
I400
sg17
g47
sg18
g13
sg19
g964
sg21
g22
sbag7
(g8
g9
NtRp1102
(dp1103
g12
g13
sg14
S'LMRomanDemi10'
p1104
sg16
I600
sg17
g13
sg18
g13
sg19
g965
sg21
g22
sbag7
(g8
g9
NtRp1105
(dp1106
g12
g45
sg14
S'Bitstream Charter'
p1107
sg16
I700
sg17
g13
sg18
g13
sg19
g966
sg21
g22
sbag7
(g8
g9
NtRp1108
(dp1109
g12
g45
sg14
S'LMMonoProp10'
p1110
sg16
I400
sg17
g13
sg18
g13
sg19
g967
sg21
g22
sbag7
(g8
g9
NtRp1111
(dp1112
g12
g13
sg14
S'LMRomanDunh10'
p1113
sg16
I400
sg17
g13
sg18
g13
sg19
g968
sg21
g22
sbag7
(g8
g9
NtRp1114
(dp1115
g12
g45
sg14
S'Bitstream Charter'
p1116
sg16
I400
sg17
g13
sg18
g13
sg19
g969
sg21
g22
sbag7
(g8
g9
NtRp1117
(dp1118
g12
g13
sg14
S'LMSans10'
p1119
sg16
I700
sg17
g13
sg18
g13
sg19
g970
sg21
g22
sbag7
(g8
g9
NtRp1120
(dp1121
g12
g13
sg14
S'URW Bookman L'
p1122
sg16
I400
sg17
g13
sg18
g13
sg19
g971
sg21
g22
sbag7
(g8
g9
NtRp1123
(dp1124
g12
g13
sg14
S'Nimbus Sans L'
p1125
sg16
I400
sg17
g13
sg18
g13
sg19
g972
sg21
g22
sbag7
(g8
g9
NtRp1126
(dp1127
g12
g45
sg14
S'LMMonoSlant10'
p1128
sg16
I400
sg17
g13
sg18
g13
sg19
g973
sg21
g22
sbag7
(g8
g9
NtRp1129
(dp1130
g12
g45
sg14
S'URW Palladio L'
p1131
sg16
I700
sg17
g13
sg18
g13
sg19
g974
sg21
g22
sbag7
(g8
g9
NtRp1132
(dp1133
g12
g45
sg14
S'URW Bookman L'
p1134
sg16
I700
sg17
g13
sg18
g13
sg19
g975
sg21
g22
sbag7
(g8
g9
NtRp1135
(dp1136
g12
g13
sg14
S'LMMonoProp10'
p1137
sg16
I400
sg17
g13
sg18
g13
sg19
g976
sg21
g22
sbag7
(g8
g9
NtRp1138
(dp1139
g12
g13
sg14
S'LMMonoPropLt10'
p1140
sg16
I700
sg17
g13
sg18
g13
sg19
g977
sg21
g22
sbag7
(g8
g9
NtRp1141
(dp1142
g12
g45
sg14
S'LMRomanDunh10'
p1143
sg16
I400
sg17
g13
sg18
g13
sg19
g978
sg21
g22
sbag7
(g8
g9
NtRp1144
(dp1145
g12
g13
sg14
S'URW Gothic L'
p1146
sg16
I400
sg17
g13
sg18
g13
sg19
g979
sg21
g22
sbag7
(g8
g9
NtRp1147
(dp1148
g12
g45
sg14
S'Courier 10 Pitch'
p1149
sg16
I400
sg17
g13
sg18
g13
sg19
g980
sg21
g22
sbag7
(g8
g9
NtRp1150
(dp1151
g12
g45
sg14
S'LMSansDemiCond10'
p1152
sg16
I600
sg17
g47
sg18
g13
sg19
g981
sg21
g22
sbag7
(g8
g9
NtRp1153
(dp1154
g12
g13
sg14
S'Nimbus Mono L'
p1155
sg16
I700
sg17
g13
sg18
g13
sg19
g982
sg21
g22
sbag7
(g8
g9
NtRp1156
(dp1157
g12
g13
sg14
S'LMSansQuot8'
p1158
sg16
I400
sg17
g13
sg18
g13
sg19
g983
sg21
g22
sbag7
(g8
g9
NtRp1159
(dp1160
g12
g45
sg14
S'LMMono10'
p1161
sg16
I400
sg17
g13
sg18
g13
sg19
g985
sg21
g22
sbag7
(g8
g9
NtRp1162
(dp1163
g12
g45
sg14
S'LMRomanSlant10'
p1164
sg16
I400
sg17
g13
sg18
g13
sg19
g986
sg21
g22
sbag7
(g8
g9
NtRp1165
(dp1166
g12
g13
sg14
S'Nimbus Roman No9 L'
p1167
sg16
I400
sg17
g13
sg18
g13
sg19
g987
sg21
g22
sbag7
(g8
g9
NtRp1168
(dp1169
g12
g45
sg14
S'Century Schoolbook L'
p1170
sg16
I400
sg17
g13
sg18
g13
sg19
g988
sg21
g22
sbag7
(g8
g9
NtRp1171
(dp1172
g12
g13
sg14
S'LMRomanCaps10'
p1173
sg16
I400
sg17
g13
sg18
g13
sg19
g989
sg21
g22
sbag7
(g8
g9
NtRp1174
(dp1175
g12
g45
sg14
S'Nimbus Sans L'
p1176
sg16
I400
sg17
g13
sg18
g13
sg19
g990
sg21
g22
sbag7
(g8
g9
NtRp1177
(dp1178
g12
g45
sg14
S'LMRomanSlant10'
p1179
sg16
I700
sg17
g13
sg18
g13
sg19
g991
sg21
g22
sbag7
(g8
g9
NtRp1180
(dp1181
g12
g45
sg14
S'LMMonoLt10'
p1182
sg16
I700
sg17
g13
sg18
g13
sg19
g992
sg21
g22
sbag7
(g8
g9
NtRp1183
(dp1184
g12
g45
sg14
S'LMMonoPropLt10'
p1185
sg16
I700
sg17
g13
sg18
g13
sg19
g993
sg21
g22
sbag7
(g8
g9
NtRp1186
(dp1187
g12
g45
sg14
S'LMSans10'
p1188
sg16
I400
sg17
g13
sg18
g13
sg19
g994
sg21
g22
sbag7
(g8
g9
NtRp1189
(dp1190
g12
g45
sg14
S'LMRomanDemi10'
p1191
sg16
I600
sg17
g13
sg18
g13
sg19
g995
sg21
g22
sbag7
(g8
g9
NtRp1192
(dp1193
g12
g45
sg14
S'URW Palladio L'
p1194
sg16
I400
sg17
g13
sg18
g13
sg19
g996
sg21
g22
sbag7
(g8
g9
NtRp1195
(dp1196
g12
g45
sg14
S'LMRoman10'
p1197
sg16
I400
sg17
g13
sg18
g13
sg19
g997
sg21
g22
sbag7
(g8
g9
NtRp1198
(dp1199
g12
g13
sg14
S'Nimbus Sans L'
p1200
sg16
I700
sg17
g13
sg18
g13
sg19
g998
sg21
g22
sbag7
(g8
g9
NtRp1201
(dp1202
g12
g45
sg14
S'LMSansQuot8'
p1203
sg16
I700
sg17
g13
sg18
g13
sg19
g999
sg21
g22
sbag7
(g8
g9
NtRp1204
(dp1205
g12
g13
sg14
S'URW Palladio L'
p1206
sg16
I500
sg17
g13
sg18
g13
sg19
g1000
sg21
g22
sbag7
(g8
g9
NtRp1207
(dp1208
g12
g13
sg14
S'LMRoman10'
p1209
sg16
I400
sg17
g13
sg18
g13
sg19
g1001
sg21
g22
sbag7
(g8
g9
NtRp1210
(dp1211
g12
g13
sg14
S'URW Gothic L'
p1212
sg16
I600
sg17
g13
sg18
g13
sg19
g1002
sg21
g22
sbag7
(g8
g9
NtRp1213
(dp1214
g12
g13
sg14
S'LMRomanUnsl10'
p1215
sg16
I400
sg17
g13
sg18
g13
sg19
g1003
sg21
g22
sbag7
(g8
g9
NtRp1216
(dp1217
g12
g13
sg14
S'LMSansDemiCond10'
p1218
sg16
I600
sg17
g47
sg18
g13
sg19
g1004
sg21
g22
sbag7
(g8
g9
NtRp1219
(dp1220
g12
g45
sg14
S'Century Schoolbook L'
p1221
sg16
I700
sg17
g13
sg18
g13
sg19
g1005
sg21
g22
sbag7
(g8
g9
NtRp1222
(dp1223
g12
g45
sg14
S'URW Bookman L'
p1224
sg16
I400
sg17
g13
sg18
g13
sg19
g1006
sg21
g22
sbag7
(g8
g9
NtRp1225
(dp1226
g12
g45
sg14
S'LMRomanCaps10'
p1227
sg16
I400
sg17
g13
sg18
g13
sg19
g1007
sg21
g22
sbag7
(g8
g9
NtRp1228
(dp1229
g12
g13
sg14
S'LMMonoLt10'
p1230
sg16
I200
sg17
g13
sg18
g13
sg19
g1008
sg21
g22
sbag7
(g8
g9
NtRp1231
(dp1232
g12
g13
sg14
S'Century Schoolbook L'
p1233
sg16
I700
sg17
g13
sg18
g13
sg19
g1009
sg21
g22
sbag7
(g8
g9
NtRp1234
(dp1235
g12
g13
sg14
S'Bitstream Charter'
p1236
sg16
I400
sg17
g13
sg18
g13
sg19
g1010
sg21
g22
sbag7
(g8
g9
NtRp1237
(dp1238
g12
g45
sg14
S'Nimbus Mono L'
p1239
sg16
I400
sg17
g13
sg18
g13
sg19
g1011
sg21
g22
sbag7
(g8
g9
NtRp1240
(dp1241
g12
g45
sg14
S'LMMonoLtCond10'
p1242
sg16
I200
sg17
g47
sg18
g13
sg19
g1012
sg21
g22
sbag7
(g8
g9
NtRp1243
(dp1244
g12
g13
sg14
S'LMMonoLtCond10'
p1245
sg16
I200
sg17
g47
sg18
g13
sg19
g1013
sg21
g22
sbag7
(g8
g9
NtRp1246
(dp1247
g12
g45
sg14
S'Nimbus Roman No9 L'
p1248
sg16
I400
sg17
g13
sg18
g13
sg19
g1014
sg21
g22
sbag7
(g8
g9
NtRp1249
(dp1250
g12
g45
sg14
S'LMMonoLt10'
p1251
sg16
I200
sg17
g13
sg18
g13
sg19
g1015
sg21
g22
sbag7
(g8
g9
NtRp1252
(dp1253
g12
g45
sg14
S'LMSans10'
p1254
sg16
I700
sg17
g13
sg18
g13
sg19
g1016
sg21
g22
sbag7
(g8
g9
NtRp1255
(dp1256
g12
g13
sg14
S'Bitstream Charter'
p1257
sg16
I700
sg17
g13
sg18
g13
sg19
g1017
sg21
g22
sbag7
(g8
g9
NtRp1258
(dp1259
g12
g13
sg14
S'LMMonoPropLt10'
p1260
sg16
I200
sg17
g13
sg18
g13
sg19
g1018
sg21
g22
sbag7
(g8
g9
NtRp1261
(dp1262
g12
g45
sg14
S'URW Gothic L'
p1263
sg16
I600
sg17
g13
sg18
g13
sg19
g1019
sg21
g22
sbag7
(g8
g9
NtRp1264
(dp1265
g12
g45
sg14
S'Nimbus Sans L'
p1266
sg16
I400
sg17
g47
sg18
g13
sg19
g1020
sg21
g22
sbag7
(g8
g9
NtRp1267
(dp1268
g12
g13
sg14
S'Courier 10 Pitch'
p1269
sg16
I400
sg17
g13
sg18
g13
sg19
g1021
sg21
g22
sbag7
(g8
g9
NtRp1270
(dp1271
g12
g45
sg14
S'LMMonoPropLt10'
p1272
sg16
I200
sg17
g13
sg18
g13
sg19
g1022
sg21
g22
sbag7
(g8
g9
NtRp1273
(dp1274
g12
g13
sg14
S'URW Bookman L'
p1275
sg16
I700
sg17
g13
sg18
g13
sg19
g1023
sg21
g22
sbag7
(g8
g9
NtRp1276
(dp1277
g12
g45
sg14
S'LMMonoCaps10'
p1278
sg16
I400
sg17
g13
sg18
g13
sg19
g1024
sg21
g22
sbasb.